target datalayout = "e-m:e-p270:32:32-p271:32:32-p272:64:64-i64:64-i128:128-f80:128-n8:16:32:64-S128"
target triple = "x86_64-pc-linux-gnu"

%struct.Context = type { i32, i32, i32, i32, i32, i32, i32, i32, i32, i32, i32, i32, ptr, ptr, ptr, [80 x i8], i64, i64, i32, [24 x i32], i64, i64, i32, ptr, ptr, i64, ptr, ptr, ptr, i32, i32, i32, ptr, ptr, ptr, ptr, ptr, i64, ptr, ptr, i64, ptr, i64, ptr, i64, i64, i64, i64 }

; Function Attrs: nounwind uwtable
define internal void @OnMetadataChunk(ptr noundef %0, ptr noundef %1, i64 noundef %2) #0 {
  %4 = alloca ptr, align 8
  %5 = alloca ptr, align 8
  %6 = alloca i64, align 8
  %7 = alloca ptr, align 8
  %8 = alloca i64, align 8
  %9 = alloca i32, align 4
  store ptr %0, ptr %4, align 8, !tbaa !57
  store ptr %1, ptr %5, align 8, !tbaa !56
  store i64 %2, ptr %6, align 8, !tbaa !52
  call void @llvm.lifetime.start.p0(i64 8, ptr %7) #8
  %10 = load ptr, ptr %4, align 8, !tbaa !57
  store ptr %10, ptr %7, align 8, !tbaa !57
  %11 = load ptr, ptr %7, align 8, !tbaa !57
  %12 = getelementptr inbounds nuw %struct.Context, ptr %11, i32 0, i32 18
  %13 = load i32, ptr %12, align 8, !tbaa !98
  %14 = icmp eq i32 %13, 1
  br i1 %14, label %15, label %69

15:                                               ; preds = %3
  call void @llvm.lifetime.start.p0(i64 8, ptr %8) #8
  store i64 0, ptr %8, align 8, !tbaa !52
  br label %16

16:                                               ; preds = %51, %15
  %17 = load i64, ptr %8, align 8, !tbaa !52
  %18 = load i64, ptr %6, align 8, !tbaa !52
  %19 = icmp ult i64 %17, %18
  br i1 %19, label %20, label %54

20:                                               ; preds = %16
  %21 = load ptr, ptr %7, align 8, !tbaa !57
  %22 = getelementptr inbounds nuw %struct.Context, ptr %21, i32 0, i32 17
  %23 = load i64, ptr %22, align 8, !tbaa !99
  %24 = load ptr, ptr %7, align 8, !tbaa !57
  %25 = getelementptr inbounds nuw %struct.Context, ptr %24, i32 0, i32 16
  %26 = load i64, ptr %25, align 8, !tbaa !20
  %27 = icmp uge i64 %23, %26
  br i1 %27, label %28, label %31

28:                                               ; preds = %20
  %29 = load ptr, ptr %7, align 8, !tbaa !57
  %30 = getelementptr inbounds nuw %struct.Context, ptr %29, i32 0, i32 18
  store i32 3, ptr %30, align 8, !tbaa !98
  store i32 1, ptr %9, align 4
  br label %66

31:                                               ; preds = %20
  %32 = load ptr, ptr %7, align 8, !tbaa !57
  %33 = getelementptr inbounds nuw %struct.Context, ptr %32, i32 0, i32 15
  %34 = load ptr, ptr %7, align 8, !tbaa !57
  %35 = getelementptr inbounds nuw %struct.Context, ptr %34, i32 0, i32 17
  %36 = load i64, ptr %35, align 8, !tbaa !99
  %37 = add i64 %36, 1
  store i64 %37, ptr %35, align 8, !tbaa !99
  %38 = getelementptr inbounds nuw [80 x i8], ptr %33, i64 0, i64 %36
  %39 = load i8, ptr %38, align 1, !tbaa !58
  %40 = zext i8 %39 to i32
  %41 = load ptr, ptr %5, align 8, !tbaa !56
  %42 = load i64, ptr %8, align 8, !tbaa !52
  %43 = getelementptr inbounds nuw i8, ptr %41, i64 %42
  %44 = load i8, ptr %43, align 1, !tbaa !58
  %45 = zext i8 %44 to i32
  %46 = icmp ne i32 %40, %45
  br i1 %46, label %47, label %50

47:                                               ; preds = %31
  %48 = load ptr, ptr %7, align 8, !tbaa !57
  %49 = getelementptr inbounds nuw %struct.Context, ptr %48, i32 0, i32 18
  store i32 3, ptr %49, align 8, !tbaa !98
  store i32 1, ptr %9, align 4
  br label %66

50:                                               ; preds = %31
  br label %51

51:                                               ; preds = %50
  %52 = load i64, ptr %8, align 8, !tbaa !52
  %53 = add i64 %52, 1
  store i64 %53, ptr %8, align 8, !tbaa !52
  br label %16, !llvm.loop !100

54:                                               ; preds = %16
  %55 = load ptr, ptr %7, align 8, !tbaa !57
  %56 = getelementptr inbounds nuw %struct.Context, ptr %55, i32 0, i32 17
  %57 = load i64, ptr %56, align 8, !tbaa !99
  %58 = load ptr, ptr %7, align 8, !tbaa !57
  %59 = getelementptr inbounds nuw %struct.Context, ptr %58, i32 0, i32 16
  %60 = load i64, ptr %59, align 8, !tbaa !20
  %61 = icmp eq i64 %57, %60
  br i1 %61, label %62, label %65

62:                                               ; preds = %54
  %63 = load ptr, ptr %7, align 8, !tbaa !57
  %64 = getelementptr inbounds nuw %struct.Context, ptr %63, i32 0, i32 18
  store i32 2, ptr %64, align 8, !tbaa !98
  br label %65

65:                                               ; preds = %62, %54
  store i32 0, ptr %9, align 4
  br label %66

66:                                               ; preds = %65, %47, %28
  call void @llvm.lifetime.end.p0(i64 8, ptr %8) #8
  %67 = load i32, ptr %9, align 4
  switch i32 %67, label %70 [
    i32 0, label %68
  ]

68:                                               ; preds = %66
  br label %69

69:                                               ; preds = %68, %3
  store i32 0, ptr %9, align 4
  br label %70

70:                                               ; preds = %69, %66
  call void @llvm.lifetime.end.p0(i64 8, ptr %7) #8
  %71 = load i32, ptr %9, align 4
  switch i32 %71, label %73 [
    i32 0, label %72
    i32 1, label %72
  ]

72:                                               ; preds = %70, %70
  ret void

73:                                               ; preds = %70
  unreachable
}