; Function Attrs: nofree norecurse nosync nounwind memory(argmem: readwrite) uwtable
define internal void @OnMetadataChunk(ptr noundef captures(none) %0, ptr noundef readonly captures(none) %1, i64 noundef %2) #8 {
  %4 = getelementptr inbounds nuw i8, ptr %0, i64 168
  %5 = load i32, ptr %4, align 8, !tbaa !66
  %6 = icmp eq i32 %5, 1
  br i1 %6, label %.preheader, label %23

.preheader:                                       ; preds = %3
  %.not1920.not = icmp eq i64 %2, 0
  %.phi.trans.insert = getelementptr inbounds nuw i8, ptr %0, i64 160
  br i1 %.not1920.not, label %.preheader.._crit_edge_crit_edge, label %.lr.ph

.preheader.._crit_edge_crit_edge:                 ; preds = %.preheader
  %.pre = load i64, ptr %.phi.trans.insert, align 8, !tbaa !82
  %.phi.trans.insert22 = getelementptr inbounds nuw i8, ptr %0, i64 152
  %.pre23 = load i64, ptr %.phi.trans.insert22, align 8, !tbaa !17
  br label %._crit_edge

.lr.ph:                                           ; preds = %.preheader
  %7 = getelementptr inbounds nuw i8, ptr %0, i64 152
  %8 = load i64, ptr %7, align 8, !tbaa !17
  %9 = getelementptr inbounds nuw i8, ptr %0, i64 72
  %.promoted = load i64, ptr %.phi.trans.insert, align 8, !tbaa !82
  br label %12

10:                                               ; preds = %14
  %11 = add nuw i64 %.01621, 1
  %exitcond.not = icmp eq i64 %11, %2
  br i1 %exitcond.not, label %._crit_edge, label %12, !llvm.loop !83

12:                                               ; preds = %.lr.ph, %10
  %13 = phi i64 [ %.promoted, %.lr.ph ], [ %15, %10 ]
  %.01621 = phi i64 [ 0, %.lr.ph ], [ %11, %10 ]
  %.not = icmp ult i64 %13, %8
  br i1 %.not, label %14, label %.sink.split

14:                                               ; preds = %12
  %15 = add nuw i64 %13, 1
  store i64 %15, ptr %.phi.trans.insert, align 8, !tbaa !82
  %16 = getelementptr inbounds nuw [80 x i8], ptr %9, i64 0, i64 %13
  %17 = load i8, ptr %16, align 1, !tbaa !27
  %18 = getelementptr inbounds nuw i8, ptr %1, i64 %.01621
  %19 = load i8, ptr %18, align 1, !tbaa !27
  %.not18 = icmp eq i8 %17, %19
  br i1 %.not18, label %10, label %.sink.split

._crit_edge:                                      ; preds = %10, %.preheader.._crit_edge_crit_edge
  %20 = phi i64 [ %.pre23, %.preheader.._crit_edge_crit_edge ], [ %8, %10 ]
  %21 = phi i64 [ %.pre, %.preheader.._crit_edge_crit_edge ], [ %15, %10 ]
  %22 = icmp eq i64 %21, %20
  br i1 %22, label %.sink.split, label %23

.sink.split:                                      ; preds = %14, %12, %._crit_edge
  %.sink = phi i32 [ 2, %._crit_edge ], [ 3, %12 ], [ 3, %14 ]
  store i32 %.sink, ptr %4, align 8, !tbaa !66
  br label %23

23:                                               ; preds = %.sink.split, %._crit_edge, %3
  ret void
}